; Function Attrs: nofree norecurse nosync nounwind memory(argmem: readwrite) uwtable
define internal void @transpose_8x8_48_c(ptr noundef readonly captures(none) %0, i64 noundef %1, ptr noundef writeonly captures(none) %2, i64 noundef %3) #7 {
  br label %.preheader.us.i

.preheader.us.i:                                  ; preds = %._crit_edge.us.i, %4
  %.051.us.i = phi ptr [ %28, %._crit_edge.us.i ], [ %0, %4 ]
  %.04550.us.i = phi ptr [ %27, %._crit_edge.us.i ], [ %2, %4 ]
  %.04649.us.i = phi i32 [ %26, %._crit_edge.us.i ], [ 0, %4 ]
  br label %5

5:                                                ; preds = %5, %.preheader.us.i
  %indvars.iv.i = phi i64 [ 0, %.preheader.us.i ], [ %indvars.iv.next.i, %5 ]
  %6 = mul nsw i64 %indvars.iv.i, %1
  %7 = getelementptr inbounds i8, ptr %.051.us.i, i64 %6
  %8 = load i8, ptr %7, align 1, !tbaa !75
  %9 = getelementptr inbounds nuw i8, ptr %7, i64 1
  %10 = load i8, ptr %9, align 1, !tbaa !75
  %11 = getelementptr inbounds nuw i8, ptr %7, i64 2
  %12 = load i8, ptr %11, align 1, !tbaa !75
  %13 = getelementptr inbounds nuw i8, ptr %7, i64 3
  %14 = load i8, ptr %13, align 1, !tbaa !75
  %15 = getelementptr inbounds nuw i8, ptr %7, i64 4
  %16 = load i8, ptr %15, align 1, !tbaa !75
  %17 = getelementptr inbounds nuw i8, ptr %7, i64 5
  %18 = load i8, ptr %17, align 1, !tbaa !75
  %19 = mul nuw nsw i64 %indvars.iv.i, 6
  %20 = getelementptr inbounds nuw i8, ptr %.04550.us.i, i64 %19
  %21 = getelementptr inbounds nuw i8, ptr %20, i64 5
  store i8 %18, ptr %21, align 1, !tbaa !75
  %22 = getelementptr inbounds nuw i8, ptr %20, i64 4
  store i8 %16, ptr %22, align 1, !tbaa !75
  %23 = getelementptr inbounds nuw i8, ptr %20, i64 3
  store i8 %14, ptr %23, align 1, !tbaa !75
  %24 = getelementptr inbounds nuw i8, ptr %20, i64 2
  store i8 %12, ptr %24, align 1, !tbaa !75
  %25 = getelementptr inbounds nuw i8, ptr %20, i64 1
  store i8 %10, ptr %25, align 1, !tbaa !75
  store i8 %8, ptr %20, align 1, !tbaa !75
  %indvars.iv.next.i = add nuw nsw i64 %indvars.iv.i, 1
  %exitcond.not.i = icmp eq i64 %indvars.iv.next.i, 8
  br i1 %exitcond.not.i, label %._crit_edge.us.i, label %5, !llvm.loop !86

._crit_edge.us.i:                                 ; preds = %5
  %26 = add nuw nsw i32 %.04649.us.i, 1
  %27 = getelementptr inbounds i8, ptr %.04550.us.i, i64 %3
  %28 = getelementptr inbounds nuw i8, ptr %.051.us.i, i64 6
  %exitcond55.not.i = icmp eq i32 %26, 8
  br i1 %exitcond55.not.i, label %transpose_block_48_c.exit, label %.preheader.us.i, !llvm.loop !87

transpose_block_48_c.exit:                        ; preds = %._crit_edge.us.i
  ret void
}